target datalayout = "e-m:e-p270:32:32-p271:32:32-p272:64:64-i64:64-i128:128-f80:128-n8:16:32:64-S128"
target triple = "x86_64-pc-linux-gnu"

%struct.regexp_matches_ctx = type { ptr, i32, i32, ptr, i32, ptr, ptr, ptr, ptr, i32 }

@.str.3 = private unnamed_addr constant [9 x i8] c"regexp.c\00", align 1
@.str.26 = private unnamed_addr constant [30 x i8] c"invalid match ending position\00", align 1
@__func__.build_regexp_split_result = private unnamed_addr constant [26 x i8] c"build_regexp_split_result\00", align 1
@.str.27 = private unnamed_addr constant [32 x i8] c"invalid match starting position\00", align 1

; Function Attrs: inlinehint nounwind uwtable
define internal i64 @Int32GetDatum(i32 noundef %0) #6 {
  %2 = alloca i32, align 4
  store i32 %0, ptr %2, align 4
  %3 = load i32, ptr %2, align 4
  %4 = sext i32 %3 to i64
  ret i64 %4
}

; Function Attrs: inlinehint nounwind uwtable
define internal i64 @PointerGetDatum(ptr noundef %0) #6 {
  %2 = alloca ptr, align 8
  store ptr %0, ptr %2, align 8
  %3 = load ptr, ptr %2, align 8
  %4 = ptrtoint ptr %3 to i64
  ret i64 %4
}

; Function Attrs: nounwind uwtable
define internal i64 @build_regexp_split_result(ptr noundef %0) #0 {
  %2 = alloca i64, align 8
  %3 = alloca ptr, align 8
  %4 = alloca ptr, align 8
  %5 = alloca i32, align 4
  %6 = alloca i32, align 4
  %7 = alloca i32, align 4
  %8 = alloca i32, align 4
  store ptr %0, ptr %3, align 8
  call void @llvm.lifetime.start.p0(i64 8, ptr %4) #8
  %9 = load ptr, ptr %3, align 8
  %10 = getelementptr inbounds nuw %struct.regexp_matches_ctx, ptr %9, i32 0, i32 8
  %11 = load ptr, ptr %10, align 8
  store ptr %11, ptr %4, align 8
  call void @llvm.lifetime.start.p0(i64 4, ptr %5) #8
  call void @llvm.lifetime.start.p0(i64 4, ptr %6) #8
  %12 = load ptr, ptr %3, align 8
  %13 = getelementptr inbounds nuw %struct.regexp_matches_ctx, ptr %12, i32 0, i32 4
  %14 = load i32, ptr %13, align 8
  %15 = icmp sgt i32 %14, 0
  br i1 %15, label %16, label %28

16:                                               ; preds = %1
  %17 = load ptr, ptr %3, align 8
  %18 = getelementptr inbounds nuw %struct.regexp_matches_ctx, ptr %17, i32 0, i32 3
  %19 = load ptr, ptr %18, align 8
  %20 = load ptr, ptr %3, align 8
  %21 = getelementptr inbounds nuw %struct.regexp_matches_ctx, ptr %20, i32 0, i32 4
  %22 = load i32, ptr %21, align 8
  %23 = mul i32 %22, 2
  %24 = sub i32 %23, 1
  %25 = sext i32 %24 to i64
  %26 = getelementptr inbounds i32, ptr %19, i64 %25
  %27 = load i32, ptr %26, align 4
  store i32 %27, ptr %5, align 4
  br label %29

28:                                               ; preds = %1
  store i32 0, ptr %5, align 4
  br label %29

29:                                               ; preds = %28, %16
  %30 = load i32, ptr %5, align 4
  %31 = icmp slt i32 %30, 0
  br i1 %31, label %32, label %43

32:                                               ; preds = %29
  br label %33

33:                                               ; preds = %32
  br i1 true, label %34, label %36

34:                                               ; preds = %33
  %35 = call zeroext i1 @errstart_cold(i32 noundef 21, ptr noundef null) #10
  br i1 %35, label %38, label %40

36:                                               ; preds = %33
  %37 = call zeroext i1 @errstart(i32 noundef 21, ptr noundef null)
  br i1 %37, label %38, label %40

38:                                               ; preds = %36, %34
  %39 = call i32 (ptr, ...) @errmsg_internal(ptr noundef @.str.26)
  call void @errfinish(ptr noundef @.str.3, i32 noundef 1802, ptr noundef @__func__.build_regexp_split_result)
  br label %40

40:                                               ; preds = %38, %36, %34
  unreachable

41:                                               ; No predecessors!
  br label %42

42:                                               ; preds = %41
  br label %43

43:                                               ; preds = %42, %29
  %44 = load ptr, ptr %3, align 8
  %45 = getelementptr inbounds nuw %struct.regexp_matches_ctx, ptr %44, i32 0, i32 3
  %46 = load ptr, ptr %45, align 8
  %47 = load ptr, ptr %3, align 8
  %48 = getelementptr inbounds nuw %struct.regexp_matches_ctx, ptr %47, i32 0, i32 4
  %49 = load i32, ptr %48, align 8
  %50 = mul i32 %49, 2
  %51 = sext i32 %50 to i64
  %52 = getelementptr inbounds i32, ptr %46, i64 %51
  %53 = load i32, ptr %52, align 4
  store i32 %53, ptr %6, align 4
  %54 = load i32, ptr %6, align 4
  %55 = load i32, ptr %5, align 4
  %56 = icmp slt i32 %54, %55
  br i1 %56, label %57, label %68

57:                                               ; preds = %43
  br label %58

58:                                               ; preds = %57
  br i1 true, label %59, label %61

59:                                               ; preds = %58
  %60 = call zeroext i1 @errstart_cold(i32 noundef 21, ptr noundef null) #10
  br i1 %60, label %63, label %65

61:                                               ; preds = %58
  %62 = call zeroext i1 @errstart(i32 noundef 21, ptr noundef null)
  br i1 %62, label %63, label %65

63:                                               ; preds = %61, %59
  %64 = call i32 (ptr, ...) @errmsg_internal(ptr noundef @.str.27)
  call void @errfinish(ptr noundef @.str.3, i32 noundef 1806, ptr noundef @__func__.build_regexp_split_result)
  br label %65

65:                                               ; preds = %63, %61, %59
  unreachable

66:                                               ; No predecessors!
  br label %67

67:                                               ; preds = %66
  br label %68

68:                                               ; preds = %67, %43
  %69 = load ptr, ptr %4, align 8
  %70 = icmp ne ptr %69, null
  br i1 %70, label %71, label %87

71:                                               ; preds = %68
  call void @llvm.lifetime.start.p0(i64 4, ptr %7) #8
  %72 = load ptr, ptr %3, align 8
  %73 = getelementptr inbounds nuw %struct.regexp_matches_ctx, ptr %72, i32 0, i32 7
  %74 = load ptr, ptr %73, align 8
  %75 = load i32, ptr %5, align 4
  %76 = sext i32 %75 to i64
  %77 = getelementptr inbounds i32, ptr %74, i64 %76
  %78 = load ptr, ptr %4, align 8
  %79 = load i32, ptr %6, align 4
  %80 = load i32, ptr %5, align 4
  %81 = sub i32 %79, %80
  %82 = call i32 @pg_wchar2mb_with_len(ptr noundef %77, ptr noundef %78, i32 noundef %81)
  store i32 %82, ptr %7, align 4
  %83 = load ptr, ptr %4, align 8
  %84 = load i32, ptr %7, align 4
  %85 = call ptr @cstring_to_text_with_len(ptr noundef %83, i32 noundef %84)
  %86 = call i64 @PointerGetDatum(ptr noundef %85)
  store i64 %86, ptr %2, align 8
  store i32 1, ptr %8, align 4
  call void @llvm.lifetime.end.p0(i64 4, ptr %7) #8
  br label %100

87:                                               ; preds = %68
  %88 = load ptr, ptr %3, align 8
  %89 = getelementptr inbounds nuw %struct.regexp_matches_ctx, ptr %88, i32 0, i32 0
  %90 = load ptr, ptr %89, align 8
  %91 = call i64 @PointerGetDatum(ptr noundef %90)
  %92 = load i32, ptr %5, align 4
  %93 = add i32 %92, 1
  %94 = call i64 @Int32GetDatum(i32 noundef %93)
  %95 = load i32, ptr %6, align 4
  %96 = load i32, ptr %5, align 4
  %97 = sub i32 %95, %96
  %98 = call i64 @Int32GetDatum(i32 noundef %97)
  %99 = call i64 @DirectFunctionCall3Coll(ptr noundef @text_substr, i32 noundef 0, i64 noundef %91, i64 noundef %94, i64 noundef %98)
  store i64 %99, ptr %2, align 8
  store i32 1, ptr %8, align 4
  br label %100

100:                                              ; preds = %87, %71
  call void @llvm.lifetime.end.p0(i64 4, ptr %6) #8
  call void @llvm.lifetime.end.p0(i64 4, ptr %5) #8
  call void @llvm.lifetime.end.p0(i64 8, ptr %4) #8
  %101 = load i64, ptr %2, align 8
  ret i64 %101
}