; Function Attrs: nounwind uwtable
define internal fastcc i64 @build_regexp_split_result(ptr noundef readonly captures(none) %0) unnamed_addr #0 {
  %2 = getelementptr inbounds nuw i8, ptr %0, i64 56
  %3 = load ptr, ptr %2, align 8
  %4 = getelementptr inbounds nuw i8, ptr %0, i64 24
  %5 = load i32, ptr %4, align 8
  %6 = icmp sgt i32 %5, 0
  %7 = getelementptr inbounds nuw i8, ptr %0, i64 16
  %8 = load ptr, ptr %7, align 8
  %9 = shl i32 %5, 1
  br i1 %6, label %10, label %.thread

10:                                               ; preds = %1
  %11 = add i32 %9, -1
  %12 = sext i32 %11 to i64
  %13 = getelementptr inbounds i32, ptr %8, i64 %12
  %14 = load i32, ptr %13, align 4
  %15 = icmp slt i32 %14, 0
  br i1 %15, label %16, label %.thread

16:                                               ; preds = %10
  %17 = tail call zeroext i1 @errstart_cold(i32 noundef 21, ptr noundef null) #10
  tail call void @llvm.assume(i1 %17)
  %18 = tail call i32 (ptr, ...) @errmsg_internal(ptr noundef nonnull @.str.26) #9
  tail call void @errfinish(ptr noundef nonnull @.str.3, i32 noundef 1802, ptr noundef nonnull @__func__.build_regexp_split_result) #9
  unreachable

.thread:                                          ; preds = %1, %10
  %.02126 = phi i32 [ %14, %10 ], [ 0, %1 ]
  %19 = sext i32 %9 to i64
  %20 = getelementptr inbounds i32, ptr %8, i64 %19
  %21 = load i32, ptr %20, align 4
  %22 = icmp slt i32 %21, %.02126
  br i1 %22, label %23, label %26

23:                                               ; preds = %.thread
  %24 = tail call zeroext i1 @errstart_cold(i32 noundef 21, ptr noundef null) #10
  tail call void @llvm.assume(i1 %24)
  %25 = tail call i32 (ptr, ...) @errmsg_internal(ptr noundef nonnull @.str.27) #9
  tail call void @errfinish(ptr noundef nonnull @.str.3, i32 noundef 1806, ptr noundef nonnull @__func__.build_regexp_split_result) #9
  unreachable

26:                                               ; preds = %.thread
  %.not = icmp eq ptr %3, null
  %27 = sub nsw i32 %21, %.02126
  br i1 %.not, label %36, label %28

28:                                               ; preds = %26
  %29 = getelementptr inbounds nuw i8, ptr %0, i64 48
  %30 = load ptr, ptr %29, align 8
  %31 = zext nneg i32 %.02126 to i64
  %32 = getelementptr inbounds nuw i32, ptr %30, i64 %31
  %33 = tail call i32 @pg_wchar2mb_with_len(ptr noundef %32, ptr noundef nonnull %3, i32 noundef %27) #9
  %34 = tail call ptr @cstring_to_text_with_len(ptr noundef nonnull %3, i32 noundef %33) #9
  %35 = ptrtoint ptr %34 to i64
  br label %43

36:                                               ; preds = %26
  %37 = load ptr, ptr %0, align 8
  %38 = ptrtoint ptr %37 to i64
  %39 = add nuw i32 %.02126, 1
  %40 = sext i32 %39 to i64
  %41 = sext i32 %27 to i64
  %42 = tail call i64 @DirectFunctionCall3Coll(ptr noundef nonnull @text_substr, i32 noundef 0, i64 noundef %38, i64 noundef %40, i64 noundef %41) #9
  br label %43

43:                                               ; preds = %36, %28
  %.0 = phi i64 [ %35, %28 ], [ %42, %36 ]
  ret i64 %.0
}